	.section	__TEXT,__text,regular,pure_instructions
	.macosx_version_min 10, 12
	.file	1 "b.c"
	.globl	_cmp
	.p2align	4, 0x90
_cmp:                                   ## @cmp
Lfunc_begin0:
	.loc	1 22 0                  ## b.c:22:0
	.cfi_startproc
## BB#0:
	pushq	%rbp
Lcfi0:
	.cfi_def_cfa_offset 16
Lcfi1:
	.cfi_offset %rbp, -16
	movq	%rsp, %rbp
Lcfi2:
	.cfi_def_cfa_register %rbp
	movq	%rdi, -8(%rbp)
	movq	%rsi, -16(%rbp)
Ltmp0:
	.loc	1 23 19 prologue_end    ## b.c:23:19
	movq	-8(%rbp), %rsi
	.loc	1 23 12 is_stmt 0       ## b.c:23:12
	movl	(%rsi), %eax
	.loc	1 23 30                 ## b.c:23:30
	movq	-16(%rbp), %rsi
	.loc	1 23 21                 ## b.c:23:21
	cmpl	(%rsi), %eax
	setl	%cl
	andb	$1, %cl
	movzbl	%cl, %eax
	.loc	1 23 5                  ## b.c:23:5
	popq	%rbp
	retq
Ltmp1:
Lfunc_end0:
	.cfi_endproc

	.globl	_check
	.p2align	4, 0x90
_check:                                 ## @check
Lfunc_begin1:
	.loc	1 27 0 is_stmt 1        ## b.c:27:0
	.cfi_startproc
## BB#0:
	pushq	%rbp
Lcfi3:
	.cfi_def_cfa_offset 16
Lcfi4:
	.cfi_offset %rbp, -16
	movq	%rsp, %rbp
Lcfi5:
	.cfi_def_cfa_register %rbp
	movl	%edi, -4(%rbp)
Ltmp2:
	.loc	1 28 9 prologue_end     ## b.c:28:9
	movl	$1, -8(%rbp)
	.loc	1 29 9                  ## b.c:29:9
	movl	$0, -16(%rbp)
Ltmp3:
	.loc	1 30 12                 ## b.c:30:12
	movl	$0, -12(%rbp)
LBB1_1:                                 ## =>This Loop Header: Depth=1
                                        ##     Child Loop BB1_3 Depth 2
	.loc	1 0 12 is_stmt 0        ## b.c:0:12
	movq	_n@GOTPCREL(%rip), %rax
Ltmp4:
	.loc	1 30 17 discriminator 1 ## b.c:30:17
	movl	-12(%rbp), %ecx
	.loc	1 30 19 discriminator 1 ## b.c:30:19
	cmpl	(%rax), %ecx
Ltmp5:
	.loc	1 30 5 discriminator 1  ## b.c:30:5
	jge	LBB1_9
## BB#2:                                ##   in Loop: Header=BB1_1 Depth=1
Ltmp6:
	.loc	1 31 18 is_stmt 1       ## b.c:31:18
	movl	-12(%rbp), %eax
	.loc	1 31 13 is_stmt 0       ## b.c:31:13
	movl	%eax, -20(%rbp)
LBB1_3:                                 ##   Parent Loop BB1_1 Depth=1
                                        ## =>  This Inner Loop Header: Depth=2
	.loc	1 0 13                  ## b.c:0:13
	xorl	%eax, %eax
	movb	%al, %cl
	movq	_n@GOTPCREL(%rip), %rdx
	.loc	1 32 16 is_stmt 1 discriminator 1 ## b.c:32:16
	movl	-20(%rbp), %eax
	.loc	1 32 19 is_stmt 0 discriminator 1 ## b.c:32:19
	addl	$1, %eax
	.loc	1 32 23 discriminator 1 ## b.c:32:23
	cmpl	(%rdx), %eax
	.loc	1 32 27 discriminator 1 ## b.c:32:27
	movb	%cl, -21(%rbp)          ## 1-byte Spill
	jge	LBB1_5
## BB#4:                                ##   in Loop: Header=BB1_3 Depth=2
	.loc	1 0 27 discriminator 1  ## b.c:0:27
	movq	_arr@GOTPCREL(%rip), %rax
	.loc	1 32 34 discriminator 2 ## b.c:32:34
	movl	-20(%rbp), %ecx
	.loc	1 32 36 discriminator 2 ## b.c:32:36
	addl	$1, %ecx
	.loc	1 32 30 discriminator 2 ## b.c:32:30
	movslq	%ecx, %rdx
	movl	(%rax,%rdx,4), %ecx
	.loc	1 32 42 discriminator 2 ## b.c:32:42
	movslq	-20(%rbp), %rdx
	movl	(%rax,%rdx,4), %esi
	.loc	1 32 50 discriminator 2 ## b.c:32:50
	addl	-4(%rbp), %esi
	.loc	1 32 40 discriminator 2 ## b.c:32:40
	cmpl	%esi, %ecx
	setl	%dil
	movb	%dil, -21(%rbp)         ## 1-byte Spill
LBB1_5:                                 ##   in Loop: Header=BB1_3 Depth=2
	.loc	1 0 40 discriminator 2  ## b.c:0:40
	movb	-21(%rbp), %al          ## 1-byte Reload
	.loc	1 32 9 discriminator 3  ## b.c:32:9
	testb	$1, %al
	jne	LBB1_6
	jmp	LBB1_7
LBB1_6:                                 ##   in Loop: Header=BB1_3 Depth=2
	.loc	1 32 59 discriminator 4 ## b.c:32:59
	movl	-20(%rbp), %eax
	addl	$1, %eax
	movl	%eax, -20(%rbp)
	.loc	1 32 9 discriminator 4  ## b.c:32:9
	jmp	LBB1_3
LBB1_7:                                 ##   in Loop: Header=BB1_1 Depth=1
	.loc	1 33 13 is_stmt 1       ## b.c:33:13
	movl	-20(%rbp), %eax
	.loc	1 33 16 is_stmt 0       ## b.c:33:16
	subl	$1, %eax
	.loc	1 33 11                 ## b.c:33:11
	movl	%eax, -12(%rbp)
	.loc	1 34 13 is_stmt 1       ## b.c:34:13
	movl	-8(%rbp), %eax
	addl	$1, %eax
	movl	%eax, -8(%rbp)
Ltmp7:
## BB#8:                                ##   in Loop: Header=BB1_1 Depth=1
	.loc	1 30 24 discriminator 2 ## b.c:30:24
	movl	-12(%rbp), %eax
	addl	$1, %eax
	movl	%eax, -12(%rbp)
	.loc	1 30 5 is_stmt 0 discriminator 2 ## b.c:30:5
	jmp	LBB1_1
Ltmp8:
LBB1_9:
	.loc	1 36 12 is_stmt 1       ## b.c:36:12
	movl	-8(%rbp), %eax
	.loc	1 36 5 is_stmt 0        ## b.c:36:5
	popq	%rbp
	retq
Ltmp9:
Lfunc_end1:
	.cfi_endproc

	.globl	_main
	.p2align	4, 0x90
_main:                                  ## @main
Lfunc_begin2:
	.loc	1 40 0 is_stmt 1        ## b.c:40:0
	.cfi_startproc
## BB#0:
	pushq	%rbp
Lcfi6:
	.cfi_def_cfa_offset 16
Lcfi7:
	.cfi_offset %rbp, -16
	movq	%rsp, %rbp
Lcfi8:
	.cfi_def_cfa_register %rbp
	subq	$32, %rsp
	movl	$0, -4(%rbp)
LBB2_1:                                 ## =>This Loop Header: Depth=1
                                        ##     Child Loop BB2_3 Depth 2
                                        ##     Child Loop BB2_7 Depth 2
	leaq	L_.str(%rip), %rdi
	movq	_n@GOTPCREL(%rip), %rsi
	leaq	-8(%rbp), %rdx
Ltmp10:
	.loc	1 42 12 prologue_end discriminator 1 ## b.c:42:12
	movb	$0, %al
	callq	_scanf
	.loc	1 42 35 is_stmt 0 discriminator 1 ## b.c:42:35
	cmpl	$-1, %eax
	.loc	1 42 5 discriminator 1  ## b.c:42:5
	je	LBB2_13
## BB#2:                                ##   in Loop: Header=BB2_1 Depth=1
Ltmp11:
	.loc	1 44 16 is_stmt 1       ## b.c:44:16
	movl	$0, -12(%rbp)
LBB2_3:                                 ##   Parent Loop BB2_1 Depth=1
                                        ## =>  This Inner Loop Header: Depth=2
	.loc	1 0 16 is_stmt 0        ## b.c:0:16
	movq	_n@GOTPCREL(%rip), %rax
Ltmp12:
	.loc	1 44 21 discriminator 1 ## b.c:44:21
	movl	-12(%rbp), %ecx
	.loc	1 44 23 discriminator 1 ## b.c:44:23
	cmpl	(%rax), %ecx
Ltmp13:
	.loc	1 44 9 discriminator 1  ## b.c:44:9
	jge	LBB2_6
## BB#4:                                ##   in Loop: Header=BB2_3 Depth=2
	.loc	1 0 9 discriminator 1   ## b.c:0:9
	leaq	L_.str.1(%rip), %rdi
	movq	_arr@GOTPCREL(%rip), %rax
Ltmp14:
	.loc	1 45 26 is_stmt 1       ## b.c:45:26
	movslq	-12(%rbp), %rcx
	shlq	$2, %rcx
	addq	%rcx, %rax
	.loc	1 45 13 is_stmt 0       ## b.c:45:13
	movq	%rax, %rsi
	movb	$0, %al
	callq	_scanf
	movl	%eax, -28(%rbp)         ## 4-byte Spill
Ltmp15:
## BB#5:                                ##   in Loop: Header=BB2_3 Depth=2
	.loc	1 44 28 is_stmt 1 discriminator 2 ## b.c:44:28
	movl	-12(%rbp), %eax
	addl	$1, %eax
	movl	%eax, -12(%rbp)
	.loc	1 44 9 is_stmt 0 discriminator 2 ## b.c:44:9
	jmp	LBB2_3
Ltmp16:
LBB2_6:                                 ##   in Loop: Header=BB2_1 Depth=1
	.loc	1 0 9 discriminator 2   ## b.c:0:9
	movq	_arr@GOTPCREL(%rip), %rax
	movl	$400020, %ecx           ## imm = 0x61A94
	movl	%ecx, %edx
	leaq	_cmp(%rip), %rcx
	movq	_n@GOTPCREL(%rip), %rsi
	.loc	1 47 20 is_stmt 1       ## b.c:47:20
	movslq	(%rsi), %rsi
	.loc	1 47 9 is_stmt 0        ## b.c:47:9
	movq	%rax, %rdi
	callq	_qsort
	movq	_arr@GOTPCREL(%rip), %rax
	movq	_n@GOTPCREL(%rip), %rcx
	.loc	1 48 13 is_stmt 1       ## b.c:48:13
	movl	$0, -16(%rbp)
	.loc	1 48 33 is_stmt 0       ## b.c:48:33
	movl	(%rcx), %r8d
	.loc	1 48 35                 ## b.c:48:35
	subl	$1, %r8d
	.loc	1 48 29                 ## b.c:48:29
	movslq	%r8d, %rcx
	movl	(%rax,%rcx,4), %r8d
	.loc	1 48 40                 ## b.c:48:40
	subl	(%rax), %r8d
	.loc	1 48 49                 ## b.c:48:49
	addl	$1, %r8d
	.loc	1 48 22                 ## b.c:48:22
	movl	%r8d, -20(%rbp)
LBB2_7:                                 ##   Parent Loop BB2_1 Depth=1
                                        ## =>  This Inner Loop Header: Depth=2
	.loc	1 51 16 is_stmt 1 discriminator 1 ## b.c:51:16
	movl	-16(%rbp), %eax
	.loc	1 51 20 is_stmt 0 discriminator 1 ## b.c:51:20
	cmpl	-20(%rbp), %eax
	.loc	1 51 9 discriminator 1  ## b.c:51:9
	jg	LBB2_12
## BB#8:                                ##   in Loop: Header=BB2_7 Depth=2
Ltmp17:
	.loc	1 52 20 is_stmt 1       ## b.c:52:20
	movl	-16(%rbp), %eax
	.loc	1 52 24 is_stmt 0       ## b.c:52:24
	addl	-20(%rbp), %eax
	.loc	1 52 32                 ## b.c:52:32
	sarl	$1, %eax
	.loc	1 52 17                 ## b.c:52:17
	movl	%eax, -24(%rbp)
Ltmp18:
	.loc	1 53 23 is_stmt 1       ## b.c:53:23
	movl	-24(%rbp), %edi
	.loc	1 53 17 is_stmt 0       ## b.c:53:17
	callq	_check
	.loc	1 53 28                 ## b.c:53:28
	cmpl	-8(%rbp), %eax
Ltmp19:
	.loc	1 53 17                 ## b.c:53:17
	jl	LBB2_10
## BB#9:                                ##   in Loop: Header=BB2_7 Depth=2
Ltmp20:
	.loc	1 54 23 is_stmt 1       ## b.c:54:23
	movl	-24(%rbp), %eax
	.loc	1 54 27 is_stmt 0       ## b.c:54:27
	addl	$1, %eax
	.loc	1 54 21                 ## b.c:54:21
	movl	%eax, -16(%rbp)
	.loc	1 55 13 is_stmt 1       ## b.c:55:13
	jmp	LBB2_11
Ltmp21:
LBB2_10:                                ##   in Loop: Header=BB2_7 Depth=2
	.loc	1 56 24                 ## b.c:56:24
	movl	-24(%rbp), %eax
	.loc	1 56 28 is_stmt 0       ## b.c:56:28
	subl	$1, %eax
	.loc	1 56 22                 ## b.c:56:22
	movl	%eax, -20(%rbp)
Ltmp22:
LBB2_11:                                ##   in Loop: Header=BB2_7 Depth=2
	.loc	1 51 9 is_stmt 1 discriminator 2 ## b.c:51:9
	jmp	LBB2_7
LBB2_12:                                ##   in Loop: Header=BB2_1 Depth=1
	.loc	1 0 9 is_stmt 0 discriminator 2 ## b.c:0:9
	leaq	L_.str.2(%rip), %rdi
	.loc	1 59 24 is_stmt 1       ## b.c:59:24
	movl	-24(%rbp), %esi
	.loc	1 59 9 is_stmt 0        ## b.c:59:9
	movb	$0, %al
	callq	_printf
Ltmp23:
	.loc	1 42 5 is_stmt 1 discriminator 2 ## b.c:42:5
	movl	%eax, -32(%rbp)         ## 4-byte Spill
	jmp	LBB2_1
LBB2_13:
	.loc	1 61 1                  ## b.c:61:1
	movl	-4(%rbp), %eax
	addq	$32, %rsp
	popq	%rbp
	retq
Ltmp24:
Lfunc_end2:
	.cfi_endproc

	.comm	_n,4,2                  ## @n
	.comm	_arr,400020,4           ## @arr
	.section	__TEXT,__cstring,cstring_literals
L_.str:                                 ## @.str
	.asciz	"%d %d"

L_.str.1:                               ## @.str.1
	.asciz	"%d"

L_.str.2:                               ## @.str.2
	.asciz	"%d\n"
